target datalayout = "e-m:e-p270:32:32-p271:32:32-p272:64:64-i64:64-i128:128-f80:128-n8:16:32:64-S128"
target triple = "x86_64-unknown-linux-gnu"

%"class.boost::detail::shared_count" = type { ptr }
%"class.boost::shared_ptr.50" = type { ptr, %"class.boost::detail::shared_count" }
%"class.QuantLib::Constraint" = type { %"class.boost::shared_ptr.48" }
%"class.boost::shared_ptr.48" = type { ptr, %"class.boost::detail::shared_count" }

; Function Attrs: mustprogress nounwind uwtable
define linkonce_odr void @_ZN5boost6detail12shared_countC2EOS1_(ptr noundef nonnull align 8 dereferenceable(8) %this, ptr noundef nonnull align 8 dereferenceable(8) %r) unnamed_addr #5 comdat align 2 {
entry:
  %this.addr = alloca ptr, align 8
  %r.addr = alloca ptr, align 8
  store ptr %this, ptr %this.addr, align 8, !tbaa !3
  store ptr %r, ptr %r.addr, align 8, !tbaa !3
  %this1 = load ptr, ptr %this.addr, align 8
  %pi_ = getelementptr inbounds nuw %"class.boost::detail::shared_count", ptr %this1, i32 0, i32 0
  %0 = load ptr, ptr %r.addr, align 8, !tbaa !3
  %pi_2 = getelementptr inbounds nuw %"class.boost::detail::shared_count", ptr %0, i32 0, i32 0
  %1 = load ptr, ptr %pi_2, align 8, !tbaa !71
  store ptr %1, ptr %pi_, align 8, !tbaa !71
  %2 = load ptr, ptr %r.addr, align 8, !tbaa !3
  %pi_3 = getelementptr inbounds nuw %"class.boost::detail::shared_count", ptr %2, i32 0, i32 0
  store ptr null, ptr %pi_3, align 8, !tbaa !71
  ret void
}

; Function Attrs: mustprogress nounwind uwtable
define linkonce_odr void @_ZN5boost10shared_ptrIN8QuantLib10Constraint4ImplEEC2EOS4_(ptr noundef nonnull align 8 dereferenceable(16) %this, ptr noundef nonnull align 8 dereferenceable(16) %r) unnamed_addr #5 comdat align 2 {
entry:
  %this.addr = alloca ptr, align 8
  %r.addr = alloca ptr, align 8
  store ptr %this, ptr %this.addr, align 8, !tbaa !3
  store ptr %r, ptr %r.addr, align 8, !tbaa !3
  %this1 = load ptr, ptr %this.addr, align 8
  %px = getelementptr inbounds nuw %"class.boost::shared_ptr.48", ptr %this1, i32 0, i32 0
  %0 = load ptr, ptr %r.addr, align 8, !tbaa !3
  %px2 = getelementptr inbounds nuw %"class.boost::shared_ptr.48", ptr %0, i32 0, i32 0
  %1 = load ptr, ptr %px2, align 8, !tbaa !73
  store ptr %1, ptr %px, align 8, !tbaa !73
  %pn = getelementptr inbounds nuw %"class.boost::shared_ptr.48", ptr %this1, i32 0, i32 1
  %2 = load ptr, ptr %r.addr, align 8, !tbaa !3
  %pn3 = getelementptr inbounds nuw %"class.boost::shared_ptr.48", ptr %2, i32 0, i32 1
  call void @_ZN5boost6detail12shared_countC2EOS1_(ptr noundef nonnull align 8 dereferenceable(8) %pn, ptr noundef nonnull align 8 dereferenceable(8) %pn3) #17
  %3 = load ptr, ptr %r.addr, align 8, !tbaa !3
  %px4 = getelementptr inbounds nuw %"class.boost::shared_ptr.48", ptr %3, i32 0, i32 0
  store ptr null, ptr %px4, align 8, !tbaa !73
  ret void
}

; Function Attrs: mustprogress nounwind uwtable
define linkonce_odr void @_ZN5boost6detail12shared_countC2Ev(ptr noundef nonnull align 8 dereferenceable(8) %this) unnamed_addr #5 comdat align 2 {
entry:
  %this.addr = alloca ptr, align 8
  store ptr %this, ptr %this.addr, align 8, !tbaa !3
  %this1 = load ptr, ptr %this.addr, align 8
  %pi_ = getelementptr inbounds nuw %"class.boost::detail::shared_count", ptr %this1, i32 0, i32 0
  store ptr null, ptr %pi_, align 8, !tbaa !71
  ret void
}

; Function Attrs: inlinehint mustprogress nounwind uwtable
define linkonce_odr void @_ZN8QuantLib10ConstraintC2EOS0_(ptr noundef nonnull align 8 dereferenceable(16) %this, ptr noundef nonnull align 8 dereferenceable(16) %0) unnamed_addr #7 comdat align 2 {
entry:
  %this.addr = alloca ptr, align 8
  %.addr = alloca ptr, align 8
  store ptr %this, ptr %this.addr, align 8, !tbaa !3
  store ptr %0, ptr %.addr, align 8, !tbaa !3
  %this1 = load ptr, ptr %this.addr, align 8
  %impl_ = getelementptr inbounds nuw %"class.QuantLib::Constraint", ptr %this1, i32 0, i32 0
  %1 = load ptr, ptr %.addr, align 8, !tbaa !3
  %impl_2 = getelementptr inbounds nuw %"class.QuantLib::Constraint", ptr %1, i32 0, i32 0
  call void @_ZN5boost10shared_ptrIN8QuantLib10Constraint4ImplEEC2EOS4_(ptr noundef nonnull align 8 dereferenceable(16) %impl_, ptr noundef nonnull align 8 dereferenceable(16) %impl_2) #17
  ret void
}

; Function Attrs: mustprogress nounwind uwtable
define linkonce_odr void @_ZN5boost10shared_ptrIN8QuantLib18OptimizationMethodEEC2Ev(ptr noundef nonnull align 8 dereferenceable(16) %this) unnamed_addr #5 comdat align 2 {
entry:
  %this.addr = alloca ptr, align 8
  store ptr %this, ptr %this.addr, align 8, !tbaa !3
  %this1 = load ptr, ptr %this.addr, align 8
  %px = getelementptr inbounds nuw %"class.boost::shared_ptr.50", ptr %this1, i32 0, i32 0
  store ptr null, ptr %px, align 8, !tbaa !35
  %pn = getelementptr inbounds nuw %"class.boost::shared_ptr.50", ptr %this1, i32 0, i32 1
  call void @_ZN5boost6detail12shared_countC2Ev(ptr noundef nonnull align 8 dereferenceable(8) %pn) #17
  ret void
}

; Function Attrs: mustprogress uwtable
define void @_ZN8QuantLib20CubicBSplinesFittingC2ERKSt6vectorIdSaIdEEbRKNS_5ArrayES8_ddNS_10ConstraintE(ptr noundef nonnull align 8 dereferenceable(220) %this, ptr noundef nonnull align 8 dereferenceable(24) %knots, i1 noundef zeroext %constrainAtZero, ptr noundef nonnull align 8 dereferenceable(16) %weights, ptr noundef nonnull align 8 dereferenceable(16) %l2, double noundef %minCutoffTime, double noundef %maxCutoffTime, ptr noundef %constraint) unnamed_addr #3 align 2 personality ptr @__gxx_personality_v0 {
entry:
  %this.addr = alloca ptr, align 8
  %knots.addr = alloca ptr, align 8
  %constrainAtZero.addr = alloca i8, align 1
  %weights.addr = alloca ptr, align 8
  %l2.addr = alloca ptr, align 8
  %minCutoffTime.addr = alloca double, align 8
  %maxCutoffTime.addr = alloca double, align 8
  %constraint.indirect_addr = alloca ptr, align 8
  %ref.tmp = alloca %"class.boost::shared_ptr.50", align 8
  %agg.tmp = alloca %"class.QuantLib::Constraint", align 8
  %exn.slot = alloca ptr, align 8
  %ehselector.slot = alloca i32, align 4
  store ptr %this, ptr %this.addr, align 8, !tbaa !3
  store ptr %knots, ptr %knots.addr, align 8, !tbaa !3
  %storedv = zext i1 %constrainAtZero to i8
  store i8 %storedv, ptr %constrainAtZero.addr, align 1, !tbaa !9
  store ptr %weights, ptr %weights.addr, align 8, !tbaa !3
  store ptr %l2, ptr %l2.addr, align 8, !tbaa !3
  store double %minCutoffTime, ptr %minCutoffTime.addr, align 8, !tbaa !11
  store double %maxCutoffTime, ptr %maxCutoffTime.addr, align 8, !tbaa !11
  store ptr %constraint, ptr %constraint.indirect_addr, align 8, !tbaa !3
  %this1 = load ptr, ptr %this.addr, align 8
  %0 = load ptr, ptr %knots.addr, align 8, !tbaa !3
  %1 = load i8, ptr %constrainAtZero.addr, align 1, !tbaa !9, !range !15, !noundef !16
  %loadedv = trunc i8 %1 to i1
  %2 = load ptr, ptr %weights.addr, align 8, !tbaa !3
  call void @llvm.lifetime.start.p0(i64 16, ptr %ref.tmp) #17
  call void @_ZN5boost10shared_ptrIN8QuantLib18OptimizationMethodEEC2Ev(ptr noundef nonnull align 8 dereferenceable(16) %ref.tmp) #17
  %3 = load ptr, ptr %l2.addr, align 8, !tbaa !3
  %4 = load double, ptr %minCutoffTime.addr, align 8, !tbaa !11
  %5 = load double, ptr %maxCutoffTime.addr, align 8, !tbaa !11
  call void @_ZN8QuantLib10ConstraintC2EOS0_(ptr noundef nonnull align 8 dereferenceable(16) %agg.tmp, ptr noundef nonnull align 8 dereferenceable(16) %constraint) #17
  invoke void @_ZN8QuantLib20CubicBSplinesFittingC2ERKSt6vectorIdSaIdEEbRKNS_5ArrayERKN5boost10shared_ptrINS_18OptimizationMethodEEES8_ddNS_10ConstraintE(ptr noundef nonnull align 8 dereferenceable(220) %this1, ptr noundef nonnull align 8 dereferenceable(24) %0, i1 noundef zeroext %loadedv, ptr noundef nonnull align 8 dereferenceable(16) %2, ptr noundef nonnull align 8 dereferenceable(16) %ref.tmp, ptr noundef nonnull align 8 dereferenceable(16) %3, double noundef %4, double noundef %5, ptr noundef %agg.tmp)
          to label %invoke.cont unwind label %lpad

invoke.cont:                                      ; preds = %entry
  call void @_ZN8QuantLib10ConstraintD2Ev(ptr noundef nonnull align 8 dereferenceable(16) %agg.tmp) #17
  call void @_ZN5boost10shared_ptrIN8QuantLib18OptimizationMethodEED2Ev(ptr noundef nonnull align 8 dereferenceable(16) %ref.tmp) #17
  call void @llvm.lifetime.end.p0(i64 16, ptr %ref.tmp) #17
  ret void

lpad:                                             ; preds = %entry
  %6 = landingpad { ptr, i32 }
          cleanup
  %7 = extractvalue { ptr, i32 } %6, 0
  store ptr %7, ptr %exn.slot, align 8
  %8 = extractvalue { ptr, i32 } %6, 1
  store i32 %8, ptr %ehselector.slot, align 4
  call void @_ZN8QuantLib10ConstraintD2Ev(ptr noundef nonnull align 8 dereferenceable(16) %agg.tmp) #17
  call void @_ZN5boost10shared_ptrIN8QuantLib18OptimizationMethodEED2Ev(ptr noundef nonnull align 8 dereferenceable(16) %ref.tmp) #17
  call void @llvm.lifetime.end.p0(i64 16, ptr %ref.tmp) #17
  br label %eh.resume

eh.resume:                                        ; preds = %lpad
  %exn = load ptr, ptr %exn.slot, align 8
  %sel = load i32, ptr %ehselector.slot, align 4
  %lpad.val = insertvalue { ptr, i32 } poison, ptr %exn, 0
  %lpad.val2 = insertvalue { ptr, i32 } %lpad.val, i32 %sel, 1
  resume { ptr, i32 } %lpad.val2
}